; Function Attrs: nofree norecurse nosync nounwind memory(argmem: readwrite) uwtable
define hidden void @aom_highbd_v_predictor_4x16_c(ptr nocapture noundef writeonly %0, i64 noundef %1, ptr nocapture noundef readonly %2, ptr nocapture noundef readnone %3, i32 noundef %4) local_unnamed_addr #0 {
  br label %6

6:                                                ; preds = %6, %5
  %.02.i = phi i32 [ 0, %5 ], [ %9, %6 ]
  %.071.i = phi ptr [ %0, %5 ], [ %8, %6 ]
  %7 = load i64, ptr %2, align 2
  store i64 %7, ptr %.071.i, align 2
  %8 = getelementptr inbounds i16, ptr %.071.i, i64 %1
  %9 = add nuw nsw i32 %.02.i, 1
  %exitcond.not.i = icmp eq i32 %9, 16
  br i1 %exitcond.not.i, label %highbd_v_predictor.exit, label %6, !llvm.loop !12

highbd_v_predictor.exit:                          ; preds = %6
  ret void
}